target datalayout = "e-m:e-p270:32:32-p271:32:32-p272:64:64-i64:64-i128:128-f80:128-n8:16:32:64-S128"
target triple = "x86_64-pc-linux-gnu"

@ett_nfs = internal global i32 0, align 4
@proto_nfs = internal global i32 0, align 4
@proto_nfs_unknown = internal global i32 0, align 4
@proto_nfs_svr4 = internal global i32 0, align 4
@proto_nfs_knfsd_le = internal global i32 0, align 4
@proto_nfs_nfsd_le = internal global i32 0, align 4
@proto_nfs_knfsd_new = internal global i32 0, align 4
@proto_nfs_ontap_v3 = internal global i32 0, align 4
@proto_nfs_ontap_v4 = internal global i32 0, align 4
@proto_nfs_ontap_gx_v3 = internal global i32 0, align 4
@proto_nfs_celerra_vnx = internal global i32 0, align 4
@proto_nfs_gluster = internal global i32 0, align 4
@proto_nfs_dcache = internal global i32 0, align 4
@proto_nfs_primary_data = internal global i32 0, align 4
@proto_nfs_cb = internal global i32 0, align 4
@.str.1401 = private unnamed_addr constant [17 x i8] c"nfs_fhandle.type\00", align 1

; Function Attrs: null_pointer_is_valid sspstrong uwtable
define hidden void @proto_reg_handoff_nfs() #0 {
  %1 = alloca ptr, align 8
  call void @llvm.lifetime.start.p0(i64 8, ptr %1) #16
  %2 = load i32, ptr @proto_nfs, align 4
  %3 = load i32, ptr @ett_nfs, align 4
  call void @rpc_init_prog(i32 noundef %2, i32 noundef 100003, i32 noundef %3, i64 noundef 3, ptr noundef @nfs_vers_info)
  %4 = load i32, ptr @proto_nfs_cb, align 4
  %5 = load i32, ptr @ett_nfs, align 4
  call void @rpc_init_prog(i32 noundef %4, i32 noundef 1073741824, i32 noundef %5, i64 noundef 2, ptr noundef @nfs_cb_vers_info)
  %6 = load i32, ptr @proto_nfs_svr4, align 4
  %7 = call ptr @create_dissector_handle(ptr noundef @dissect_fhandle_data_SVR4, i32 noundef %6)
  store ptr %7, ptr %1, align 8
  %8 = load ptr, ptr %1, align 8
  call void @dissector_add_for_decode_as(ptr noundef @.str.1401, ptr noundef %8)
  %9 = load i32, ptr @proto_nfs_knfsd_le, align 4
  %10 = call ptr @create_dissector_handle(ptr noundef @dissect_fhandle_data_LINUX_KNFSD_LE, i32 noundef %9)
  store ptr %10, ptr %1, align 8
  %11 = load ptr, ptr %1, align 8
  call void @dissector_add_for_decode_as(ptr noundef @.str.1401, ptr noundef %11)
  %12 = load i32, ptr @proto_nfs_nfsd_le, align 4
  %13 = call ptr @create_dissector_handle(ptr noundef @dissect_fhandle_data_LINUX_NFSD_LE, i32 noundef %12)
  store ptr %13, ptr %1, align 8
  %14 = load ptr, ptr %1, align 8
  call void @dissector_add_for_decode_as(ptr noundef @.str.1401, ptr noundef %14)
  %15 = load i32, ptr @proto_nfs_knfsd_new, align 4
  %16 = call ptr @create_dissector_handle(ptr noundef @dissect_fhandle_data_LINUX_KNFSD_NEW, i32 noundef %15)
  store ptr %16, ptr %1, align 8
  %17 = load ptr, ptr %1, align 8
  call void @dissector_add_for_decode_as(ptr noundef @.str.1401, ptr noundef %17)
  %18 = load i32, ptr @proto_nfs_ontap_v3, align 4
  %19 = call ptr @create_dissector_handle(ptr noundef @dissect_fhandle_data_NETAPP, i32 noundef %18)
  store ptr %19, ptr %1, align 8
  %20 = load ptr, ptr %1, align 8
  call void @dissector_add_for_decode_as(ptr noundef @.str.1401, ptr noundef %20)
  %21 = load i32, ptr @proto_nfs_ontap_v4, align 4
  %22 = call ptr @create_dissector_handle(ptr noundef @dissect_fhandle_data_NETAPP_V4, i32 noundef %21)
  store ptr %22, ptr %1, align 8
  %23 = load ptr, ptr %1, align 8
  call void @dissector_add_for_decode_as(ptr noundef @.str.1401, ptr noundef %23)
  %24 = load i32, ptr @proto_nfs_ontap_gx_v3, align 4
  %25 = call ptr @create_dissector_handle(ptr noundef @dissect_fhandle_data_NETAPP_GX_v3, i32 noundef %24)
  store ptr %25, ptr %1, align 8
  %26 = load ptr, ptr %1, align 8
  call void @dissector_add_for_decode_as(ptr noundef @.str.1401, ptr noundef %26)
  %27 = load i32, ptr @proto_nfs_celerra_vnx, align 4
  %28 = call ptr @create_dissector_handle(ptr noundef @dissect_fhandle_data_CELERRA_VNX, i32 noundef %27)
  store ptr %28, ptr %1, align 8
  %29 = load ptr, ptr %1, align 8
  call void @dissector_add_for_decode_as(ptr noundef @.str.1401, ptr noundef %29)
  %30 = load i32, ptr @proto_nfs_gluster, align 4
  %31 = call ptr @create_dissector_handle(ptr noundef @dissect_fhandle_data_GLUSTER, i32 noundef %30)
  store ptr %31, ptr %1, align 8
  %32 = load ptr, ptr %1, align 8
  call void @dissector_add_for_decode_as(ptr noundef @.str.1401, ptr noundef %32)
  %33 = load i32, ptr @proto_nfs_dcache, align 4
  %34 = call ptr @create_dissector_handle(ptr noundef @dissect_fhandle_data_DCACHE, i32 noundef %33)
  store ptr %34, ptr %1, align 8
  %35 = load ptr, ptr %1, align 8
  call void @dissector_add_for_decode_as(ptr noundef @.str.1401, ptr noundef %35)
  %36 = load i32, ptr @proto_nfs_primary_data, align 4
  %37 = call ptr @create_dissector_handle(ptr noundef @dissect_fhandle_data_PRIMARY_DATA, i32 noundef %36)
  store ptr %37, ptr %1, align 8
  %38 = load ptr, ptr %1, align 8
  call void @dissector_add_for_decode_as(ptr noundef @.str.1401, ptr noundef %38)
  %39 = load i32, ptr @proto_nfs_unknown, align 4
  %40 = call ptr @create_dissector_handle(ptr noundef @dissect_fhandle_data_unknown, i32 noundef %39)
  store ptr %40, ptr %1, align 8
  %41 = load ptr, ptr %1, align 8
  call void @dissector_add_for_decode_as(ptr noundef @.str.1401, ptr noundef %41)
  call void @llvm.lifetime.end.p0(i64 8, ptr %1) #16
  ret void
}