; Function Attrs: null_pointer_is_valid sspstrong uwtable
define hidden void @proto_reg_handoff_nfs() local_unnamed_addr #0 {
  %1 = load i32, ptr @proto_nfs, align 4
  %2 = load i32, ptr @ett_nfs, align 4
  tail call void @rpc_init_prog(i32 noundef %1, i32 noundef 100003, i32 noundef %2, i64 noundef 3, ptr noundef nonnull @nfs_vers_info)
  %3 = load i32, ptr @proto_nfs_cb, align 4
  %4 = load i32, ptr @ett_nfs, align 4
  tail call void @rpc_init_prog(i32 noundef %3, i32 noundef 1073741824, i32 noundef %4, i64 noundef 2, ptr noundef nonnull @nfs_cb_vers_info)
  %5 = load i32, ptr @proto_nfs_svr4, align 4
  %6 = tail call ptr @create_dissector_handle(ptr noundef nonnull @dissect_fhandle_data_SVR4, i32 noundef %5)
  tail call void @dissector_add_for_decode_as(ptr noundef nonnull @.str.1401, ptr noundef %6)
  %7 = load i32, ptr @proto_nfs_knfsd_le, align 4
  %8 = tail call ptr @create_dissector_handle(ptr noundef nonnull @dissect_fhandle_data_LINUX_KNFSD_LE, i32 noundef %7)
  tail call void @dissector_add_for_decode_as(ptr noundef nonnull @.str.1401, ptr noundef %8)
  %9 = load i32, ptr @proto_nfs_nfsd_le, align 4
  %10 = tail call ptr @create_dissector_handle(ptr noundef nonnull @dissect_fhandle_data_LINUX_NFSD_LE, i32 noundef %9)
  tail call void @dissector_add_for_decode_as(ptr noundef nonnull @.str.1401, ptr noundef %10)
  %11 = load i32, ptr @proto_nfs_knfsd_new, align 4
  %12 = tail call ptr @create_dissector_handle(ptr noundef nonnull @dissect_fhandle_data_LINUX_KNFSD_NEW, i32 noundef %11)
  tail call void @dissector_add_for_decode_as(ptr noundef nonnull @.str.1401, ptr noundef %12)
  %13 = load i32, ptr @proto_nfs_ontap_v3, align 4
  %14 = tail call ptr @create_dissector_handle(ptr noundef nonnull @dissect_fhandle_data_NETAPP, i32 noundef %13)
  tail call void @dissector_add_for_decode_as(ptr noundef nonnull @.str.1401, ptr noundef %14)
  %15 = load i32, ptr @proto_nfs_ontap_v4, align 4
  %16 = tail call ptr @create_dissector_handle(ptr noundef nonnull @dissect_fhandle_data_NETAPP_V4, i32 noundef %15)
  tail call void @dissector_add_for_decode_as(ptr noundef nonnull @.str.1401, ptr noundef %16)
  %17 = load i32, ptr @proto_nfs_ontap_gx_v3, align 4
  %18 = tail call ptr @create_dissector_handle(ptr noundef nonnull @dissect_fhandle_data_NETAPP_GX_v3, i32 noundef %17)
  tail call void @dissector_add_for_decode_as(ptr noundef nonnull @.str.1401, ptr noundef %18)
  %19 = load i32, ptr @proto_nfs_celerra_vnx, align 4
  %20 = tail call ptr @create_dissector_handle(ptr noundef nonnull @dissect_fhandle_data_CELERRA_VNX, i32 noundef %19)
  tail call void @dissector_add_for_decode_as(ptr noundef nonnull @.str.1401, ptr noundef %20)
  %21 = load i32, ptr @proto_nfs_gluster, align 4
  %22 = tail call ptr @create_dissector_handle(ptr noundef nonnull @dissect_fhandle_data_GLUSTER, i32 noundef %21)
  tail call void @dissector_add_for_decode_as(ptr noundef nonnull @.str.1401, ptr noundef %22)
  %23 = load i32, ptr @proto_nfs_dcache, align 4
  %24 = tail call ptr @create_dissector_handle(ptr noundef nonnull @dissect_fhandle_data_DCACHE, i32 noundef %23)
  tail call void @dissector_add_for_decode_as(ptr noundef nonnull @.str.1401, ptr noundef %24)
  %25 = load i32, ptr @proto_nfs_primary_data, align 4
  %26 = tail call ptr @create_dissector_handle(ptr noundef nonnull @dissect_fhandle_data_PRIMARY_DATA, i32 noundef %25)
  tail call void @dissector_add_for_decode_as(ptr noundef nonnull @.str.1401, ptr noundef %26)
  %27 = load i32, ptr @proto_nfs_unknown, align 4
  %28 = tail call ptr @create_dissector_handle(ptr noundef nonnull @dissect_fhandle_data_unknown, i32 noundef %27)
  tail call void @dissector_add_for_decode_as(ptr noundef nonnull @.str.1401, ptr noundef %28)
  ret void
}